; Function Attrs: nounwind uwtable
define noalias noundef ptr @Gia_ManSimPatValues(ptr noundef readonly captures(none) %0) local_unnamed_addr #4 {
  %2 = getelementptr inbounds nuw i8, ptr %0, i64 848
  %3 = load ptr, ptr %2, align 8, !tbaa !36
  %4 = getelementptr i8, ptr %3, i64 4
  %.val23 = load i32, ptr %4, align 4, !tbaa !37
  %5 = getelementptr i8, ptr %0, i64 64
  %.val24 = load ptr, ptr %5, align 8, !tbaa !3
  %6 = getelementptr i8, ptr %.val24, i64 4
  %.val24.val = load i32, ptr %6, align 4, !tbaa !28
  %7 = sdiv i32 %.val23, %.val24.val
  %8 = tail call ptr @Gia_ManSimPatSim(ptr noundef %0)
  %9 = getelementptr i8, ptr %0, i64 72
  %.val27 = load ptr, ptr %9, align 8, !tbaa !45
  %10 = getelementptr i8, ptr %.val27, i64 4
  %.val27.val = load i32, ptr %10, align 4, !tbaa !28
  %11 = mul nsw i32 %.val27.val, %7
  %12 = tail call noalias dereferenceable_or_null(16) ptr @malloc(i64 noundef 16) #31
  %13 = add i32 %11, -1
  %or.cond.i.i = icmp ult i32 %13, 15
  %spec.store.select.i.i = select i1 %or.cond.i.i, i32 16, i32 %11
  store i32 %spec.store.select.i.i, ptr %12, align 8, !tbaa !39
  %.not.i.i = icmp eq i32 %spec.store.select.i.i, 0
  br i1 %.not.i.i, label %Vec_WrdStart.exit, label %14

14:                                               ; preds = %1
  %15 = sext i32 %spec.store.select.i.i to i64
  %16 = shl nsw i64 %15, 3
  %17 = tail call noalias ptr @malloc(i64 noundef %16) #31
  br label %Vec_WrdStart.exit

Vec_WrdStart.exit:                                ; preds = %1, %14
  %18 = phi ptr [ %17, %14 ], [ null, %1 ]
  %19 = getelementptr inbounds nuw i8, ptr %12, i64 4
  %20 = getelementptr inbounds nuw i8, ptr %12, i64 8
  store ptr %18, ptr %20, align 8, !tbaa !31
  store i32 %11, ptr %19, align 4, !tbaa !37
  %21 = sext i32 %11 to i64
  %22 = shl nsw i64 %21, 3
  tail call void @llvm.memset.p0.i64(ptr align 8 %18, i8 0, i64 %22, i1 false)
  %23 = icmp sgt i32 %.val27.val, 0
  br i1 %23, label %.lr.ph, label %.critedge

.lr.ph:                                           ; preds = %Vec_WrdStart.exit
  %24 = getelementptr i8, ptr %.val27, i64 8
  %25 = getelementptr i8, ptr %8, i64 8
  %26 = sext i32 %7 to i64
  %27 = shl nsw i64 %26, 3
  %.val26.val.pre = load ptr, ptr %24, align 8, !tbaa !29
  %28 = zext nneg i32 %.val27.val to i64
  br label %29

29:                                               ; preds = %.lr.ph, %32
  %indvars.iv = phi i64 [ 0, %.lr.ph ], [ %indvars.iv.next, %32 ]
  %30 = getelementptr inbounds nuw i32, ptr %.val26.val.pre, i64 %indvars.iv
  %31 = load i32, ptr %30, align 4, !tbaa !30
  %.not = icmp eq i32 %31, 0
  br i1 %.not, label %.critedge, label %32

32:                                               ; preds = %29
  %33 = mul nsw i64 %indvars.iv, %26
  %34 = getelementptr inbounds i64, ptr %18, i64 %33
  %35 = mul nsw i32 %31, %7
  %.val21 = load ptr, ptr %25, align 8, !tbaa !31
  %36 = sext i32 %35 to i64
  %37 = getelementptr inbounds i64, ptr %.val21, i64 %36
  tail call void @llvm.memcpy.p0.p0.i64(ptr align 8 %34, ptr align 8 %37, i64 %27, i1 false)
  %indvars.iv.next = add nuw nsw i64 %indvars.iv, 1
  %38 = icmp samesign ult i64 %indvars.iv.next, %28
  br i1 %38, label %29, label %.critedge, !llvm.loop !120

.critedge:                                        ; preds = %29, %32, %Vec_WrdStart.exit
  %39 = getelementptr inbounds nuw i8, ptr %8, i64 8
  %40 = load ptr, ptr %39, align 8, !tbaa !31
  %.not.i = icmp eq ptr %40, null
  br i1 %.not.i, label %Vec_WrdFree.exit, label %41

41:                                               ; preds = %.critedge
  tail call void @free(ptr noundef nonnull %40) #32
  br label %Vec_WrdFree.exit

Vec_WrdFree.exit:                                 ; preds = %.critedge, %41
  tail call void @free(ptr noundef nonnull %8) #32
  ret ptr %12
}